; ModuleID = 'source-C-CXX/57/145.cpp'
source_filename = "source-C-CXX/57/145.cpp"
target datalayout = "e-m:e-p270:32:32-p271:32:32-p272:64:64-i64:64-f80:128-n8:16:32:64-S128"
target triple = "x86_64-pc-linux-gnu"

%"class.std::ios_base::Init" = type { i8 }
%"class.std::basic_istream" = type { i32 (...)**, i64, %"class.std::basic_ios" }
%"class.std::basic_ios" = type { %"class.std::ios_base", %"class.std::basic_ostream"*, i8, i8, %"class.std::basic_streambuf"*, %"class.std::ctype"*, %"class.std::num_put"*, %"class.std::num_get"* }
%"class.std::ios_base" = type { i32 (...)**, i64, i64, i32, i32, i32, %"struct.std::ios_base::_Callback_list"*, %"struct.std::ios_base::_Words", [8 x %"struct.std::ios_base::_Words"], i32, %"struct.std::ios_base::_Words"*, %"class.std::locale" }
%"struct.std::ios_base::_Callback_list" = type { %"struct.std::ios_base::_Callback_list"*, void (i32, %"class.std::ios_base"*, i32)*, i32, i32 }
%"struct.std::ios_base::_Words" = type { i8*, i64 }
%"class.std::locale" = type { %"class.std::locale::_Impl"* }
%"class.std::locale::_Impl" = type { i32, %"class.std::locale::facet"**, i64, %"class.std::locale::facet"**, i8** }
%"class.std::locale::facet" = type <{ i32 (...)**, i32, [4 x i8] }>
%"class.std::basic_ostream" = type { i32 (...)**, %"class.std::basic_ios" }
%"class.std::basic_streambuf" = type { i32 (...)**, i8*, i8*, i8*, i8*, i8*, i8*, %"class.std::locale" }
%"class.std::ctype" = type <{ %"class.std::locale::facet.base", [4 x i8], %struct.__locale_struct*, i8, [7 x i8], i32*, i32*, i16*, i8, [256 x i8], [256 x i8], i8, [6 x i8] }>
%"class.std::locale::facet.base" = type <{ i32 (...)**, i32 }>
%struct.__locale_struct = type { [13 x %struct.__locale_data*], i16*, i32*, i32*, [13 x i8*] }
%struct.__locale_data = type opaque
%"class.std::num_put" = type { %"class.std::locale::facet.base", [4 x i8] }
%"class.std::num_get" = type { %"class.std::locale::facet.base", [4 x i8] }

@_ZStL8__ioinit = internal global %"class.std::ios_base::Init" zeroinitializer, align 1
@__dso_handle = external hidden global i8
@_ZSt3cin = external global %"class.std::basic_istream", align 8
@_ZSt4cout = external global %"class.std::basic_ostream", align 8
@llvm.global_ctors = appending global [1 x { i32, void ()*, i8* }] [{ i32, void ()*, i8* } { i32 65535, void ()* @_GLOBAL__sub_I_145.cpp, i8* null }]

declare void @_ZNSt8ios_base4InitC1Ev(%"class.std::ios_base::Init"* nonnull align 1 dereferenceable(1)) unnamed_addr #0

; Function Attrs: nounwind
declare void @_ZNSt8ios_base4InitD1Ev(%"class.std::ios_base::Init"* nonnull align 1 dereferenceable(1)) unnamed_addr #1

; Function Attrs: nofree nounwind
declare i32 @__cxa_atexit(void (i8*)*, i8*, i8*) local_unnamed_addr #2

; Function Attrs: mustprogress norecurse sspstrong uwtable
define dso_local i32 @main() local_unnamed_addr #3 {
  %1 = alloca i32, align 4
  %2 = alloca [81 x i8], align 16
  %3 = alloca [81 x i8], align 16
  %4 = bitcast i32* %1 to i8*
  call void @llvm.lifetime.start.p0i8(i64 4, i8* nonnull %4) #8
  %5 = call nonnull align 8 dereferenceable(16) %"class.std::basic_istream"* @_ZNSirsERi(%"class.std::basic_istream"* nonnull align 8 dereferenceable(16) @_ZSt3cin, i32* nonnull align 4 dereferenceable(4) %1)
  %6 = getelementptr inbounds [81 x i8], [81 x i8]* %2, i64 0, i64 0
  call void @llvm.lifetime.start.p0i8(i64 81, i8* nonnull %6) #8
  %7 = load i8*, i8** bitcast (%"class.std::basic_istream"* @_ZSt3cin to i8**), align 8, !tbaa !5
  %8 = getelementptr i8, i8* %7, i64 -24
  %9 = bitcast i8* %8 to i64*
  %10 = load i64, i64* %9, align 8
  %11 = add nsw i64 %10, 240
  %12 = getelementptr inbounds i8, i8* bitcast (%"class.std::basic_istream"* @_ZSt3cin to i8*), i64 %11
  %13 = bitcast i8* %12 to %"class.std::ctype"**
  %14 = load %"class.std::ctype"*, %"class.std::ctype"** %13, align 8, !tbaa !8
  %15 = icmp eq %"class.std::ctype"* %14, null
  br i1 %15, label %16, label %17

16:                                               ; preds = %0
  call void @_ZSt16__throw_bad_castv() #9
  unreachable

17:                                               ; preds = %0
  %18 = getelementptr inbounds %"class.std::ctype", %"class.std::ctype"* %14, i64 0, i32 8
  %19 = load i8, i8* %18, align 8, !tbaa !13
  %20 = icmp eq i8 %19, 0
  br i1 %20, label %24, label %21

21:                                               ; preds = %17
  %22 = getelementptr inbounds %"class.std::ctype", %"class.std::ctype"* %14, i64 0, i32 9, i64 10
  %23 = load i8, i8* %22, align 1, !tbaa !15
  br label %30

24:                                               ; preds = %17
  call void @_ZNKSt5ctypeIcE13_M_widen_initEv(%"class.std::ctype"* nonnull align 8 dereferenceable(570) %14)
  %25 = bitcast %"class.std::ctype"* %14 to i8 (%"class.std::ctype"*, i8)***
  %26 = load i8 (%"class.std::ctype"*, i8)**, i8 (%"class.std::ctype"*, i8)*** %25, align 8, !tbaa !5
  %27 = getelementptr inbounds i8 (%"class.std::ctype"*, i8)*, i8 (%"class.std::ctype"*, i8)** %26, i64 6
  %28 = load i8 (%"class.std::ctype"*, i8)*, i8 (%"class.std::ctype"*, i8)** %27, align 8
  %29 = call signext i8 %28(%"class.std::ctype"* nonnull align 8 dereferenceable(570) %14, i8 signext 10)
  br label %30

30:                                               ; preds = %21, %24
  %31 = phi i8 [ %23, %21 ], [ %29, %24 ]
  %32 = call nonnull align 8 dereferenceable(16) %"class.std::basic_istream"* @_ZNSi7getlineEPclc(%"class.std::basic_istream"* nonnull align 8 dereferenceable(16) @_ZSt3cin, i8* nonnull %6, i64 81, i8 signext %31)
  %33 = getelementptr inbounds [81 x i8], [81 x i8]* %3, i64 0, i64 0
  %34 = load i32, i32* %1, align 4, !tbaa !16
  %35 = icmp slt i32 %34, 1
  br i1 %35, label %133, label %36

36:                                               ; preds = %30, %129
  %37 = phi i32 [ %131, %129 ], [ 1, %30 ]
  call void @llvm.lifetime.start.p0i8(i64 81, i8* nonnull %33) #8
  %38 = load i8*, i8** bitcast (%"class.std::basic_istream"* @_ZSt3cin to i8**), align 8, !tbaa !5
  %39 = getelementptr i8, i8* %38, i64 -24
  %40 = bitcast i8* %39 to i64*
  %41 = load i64, i64* %40, align 8
  %42 = add nsw i64 %41, 240
  %43 = getelementptr inbounds i8, i8* bitcast (%"class.std::basic_istream"* @_ZSt3cin to i8*), i64 %42
  %44 = bitcast i8* %43 to %"class.std::ctype"**
  %45 = load %"class.std::ctype"*, %"class.std::ctype"** %44, align 8, !tbaa !8
  %46 = icmp eq %"class.std::ctype"* %45, null
  br i1 %46, label %47, label %48

47:                                               ; preds = %36
  call void @_ZSt16__throw_bad_castv() #9
  unreachable

48:                                               ; preds = %36
  %49 = getelementptr inbounds %"class.std::ctype", %"class.std::ctype"* %45, i64 0, i32 8
  %50 = load i8, i8* %49, align 8, !tbaa !13
  %51 = icmp eq i8 %50, 0
  br i1 %51, label %55, label %52

52:                                               ; preds = %48
  %53 = getelementptr inbounds %"class.std::ctype", %"class.std::ctype"* %45, i64 0, i32 9, i64 10
  %54 = load i8, i8* %53, align 1, !tbaa !15
  br label %61

55:                                               ; preds = %48
  call void @_ZNKSt5ctypeIcE13_M_widen_initEv(%"class.std::ctype"* nonnull align 8 dereferenceable(570) %45)
  %56 = bitcast %"class.std::ctype"* %45 to i8 (%"class.std::ctype"*, i8)***
  %57 = load i8 (%"class.std::ctype"*, i8)**, i8 (%"class.std::ctype"*, i8)*** %56, align 8, !tbaa !5
  %58 = getelementptr inbounds i8 (%"class.std::ctype"*, i8)*, i8 (%"class.std::ctype"*, i8)** %57, i64 6
  %59 = load i8 (%"class.std::ctype"*, i8)*, i8 (%"class.std::ctype"*, i8)** %58, align 8
  %60 = call signext i8 %59(%"class.std::ctype"* nonnull align 8 dereferenceable(570) %45, i8 signext 10)
  br label %61

61:                                               ; preds = %52, %55
  %62 = phi i8 [ %54, %52 ], [ %60, %55 ]
  %63 = call nonnull align 8 dereferenceable(16) %"class.std::basic_istream"* @_ZNSi7getlineEPclc(%"class.std::basic_istream"* nonnull align 8 dereferenceable(16) @_ZSt3cin, i8* nonnull %33, i64 81, i8 signext %62)
  %64 = load i8, i8* %33, align 16, !tbaa !15
  %65 = add i8 %64, -65
  %66 = icmp ult i8 %65, 26
  br i1 %66, label %72, label %67

67:                                               ; preds = %61
  %68 = add i8 %64, -97
  %69 = icmp ult i8 %68, 26
  %70 = icmp eq i8 %64, 95
  %71 = or i1 %70, %69
  br i1 %71, label %72, label %95

72:                                               ; preds = %67, %61
  %73 = call i64 @strlen(i8* noundef nonnull %33) #10
  %74 = trunc i64 %73 to i32
  %75 = icmp sgt i32 %74, 1
  br i1 %75, label %76, label %95

76:                                               ; preds = %72
  %77 = and i64 %73, 4294967295
  br label %78

78:                                               ; preds = %76, %92
  %79 = phi i64 [ 1, %76 ], [ %93, %92 ]
  %80 = getelementptr inbounds [81 x i8], [81 x i8]* %3, i64 0, i64 %79
  %81 = load i8, i8* %80, align 1, !tbaa !15
  %82 = add i8 %81, -65
  %83 = icmp ult i8 %82, 26
  br i1 %83, label %92, label %84

84:                                               ; preds = %78
  %85 = add i8 %81, -97
  %86 = icmp ult i8 %85, 26
  %87 = icmp eq i8 %81, 95
  %88 = or i1 %87, %86
  %89 = add i8 %81, -48
  %90 = icmp ult i8 %89, 10
  %91 = or i1 %90, %88
  br i1 %91, label %92, label %95

92:                                               ; preds = %84, %78
  %93 = add nuw nsw i64 %79, 1
  %94 = icmp eq i64 %93, %77
  br i1 %94, label %95, label %78, !llvm.loop !18

95:                                               ; preds = %92, %84, %72, %67
  %96 = phi i32 [ 0, %67 ], [ 1, %72 ], [ 1, %92 ], [ 0, %84 ]
  %97 = call nonnull align 8 dereferenceable(8) %"class.std::basic_ostream"* @_ZNSolsEi(%"class.std::basic_ostream"* nonnull align 8 dereferenceable(8) @_ZSt4cout, i32 %96)
  %98 = load i32, i32* %1, align 4, !tbaa !16
  %99 = icmp eq i32 %37, %98
  br i1 %99, label %129, label %100

100:                                              ; preds = %95
  %101 = load i8*, i8** bitcast (%"class.std::basic_ostream"* @_ZSt4cout to i8**), align 8, !tbaa !5
  %102 = getelementptr i8, i8* %101, i64 -24
  %103 = bitcast i8* %102 to i64*
  %104 = load i64, i64* %103, align 8
  %105 = add nsw i64 %104, 240
  %106 = getelementptr inbounds i8, i8* bitcast (%"class.std::basic_ostream"* @_ZSt4cout to i8*), i64 %105
  %107 = bitcast i8* %106 to %"class.std::ctype"**
  %108 = load %"class.std::ctype"*, %"class.std::ctype"** %107, align 8, !tbaa !8
  %109 = icmp eq %"class.std::ctype"* %108, null
  br i1 %109, label %110, label %111

110:                                              ; preds = %100
  call void @_ZSt16__throw_bad_castv() #9
  unreachable

111:                                              ; preds = %100
  %112 = getelementptr inbounds %"class.std::ctype", %"class.std::ctype"* %108, i64 0, i32 8
  %113 = load i8, i8* %112, align 8, !tbaa !13
  %114 = icmp eq i8 %113, 0
  br i1 %114, label %118, label %115

115:                                              ; preds = %111
  %116 = getelementptr inbounds %"class.std::ctype", %"class.std::ctype"* %108, i64 0, i32 9, i64 10
  %117 = load i8, i8* %116, align 1, !tbaa !15
  br label %124

118:                                              ; preds = %111
  call void @_ZNKSt5ctypeIcE13_M_widen_initEv(%"class.std::ctype"* nonnull align 8 dereferenceable(570) %108)
  %119 = bitcast %"class.std::ctype"* %108 to i8 (%"class.std::ctype"*, i8)***
  %120 = load i8 (%"class.std::ctype"*, i8)**, i8 (%"class.std::ctype"*, i8)*** %119, align 8, !tbaa !5
  %121 = getelementptr inbounds i8 (%"class.std::ctype"*, i8)*, i8 (%"class.std::ctype"*, i8)** %120, i64 6
  %122 = load i8 (%"class.std::ctype"*, i8)*, i8 (%"class.std::ctype"*, i8)** %121, align 8
  %123 = call signext i8 %122(%"class.std::ctype"* nonnull align 8 dereferenceable(570) %108, i8 signext 10)
  br label %124

124:                                              ; preds = %115, %118
  %125 = phi i8 [ %117, %115 ], [ %123, %118 ]
  %126 = call nonnull align 8 dereferenceable(8) %"class.std::basic_ostream"* @_ZNSo3putEc(%"class.std::basic_ostream"* nonnull align 8 dereferenceable(8) @_ZSt4cout, i8 signext %125)
  %127 = call nonnull align 8 dereferenceable(8) %"class.std::basic_ostream"* @_ZNSo5flushEv(%"class.std::basic_ostream"* nonnull align 8 dereferenceable(8) %126)
  %128 = load i32, i32* %1, align 4, !tbaa !16
  br label %129

129:                                              ; preds = %124, %95
  %130 = phi i32 [ %128, %124 ], [ %37, %95 ]
  call void @llvm.lifetime.end.p0i8(i64 81, i8* nonnull %33) #8
  %131 = add nuw nsw i32 %37, 1
  %132 = icmp slt i32 %37, %130
  br i1 %132, label %36, label %133, !llvm.loop !20

133:                                              ; preds = %129, %30
  call void @llvm.lifetime.end.p0i8(i64 81, i8* nonnull %6) #8
  call void @llvm.lifetime.end.p0i8(i64 4, i8* nonnull %4) #8
  ret i32 0
}

; Function Attrs: argmemonly mustprogress nofree nosync nounwind willreturn
declare void @llvm.lifetime.start.p0i8(i64 immarg, i8* nocapture) #4

declare nonnull align 8 dereferenceable(16) %"class.std::basic_istream"* @_ZNSirsERi(%"class.std::basic_istream"* nonnull align 8 dereferenceable(16), i32* nonnull align 4 dereferenceable(4)) local_unnamed_addr #0

; Function Attrs: argmemonly mustprogress nofree nounwind readonly willreturn
declare i64 @strlen(i8* nocapture) local_unnamed_addr #5

declare nonnull align 8 dereferenceable(8) %"class.std::basic_ostream"* @_ZNSolsEi(%"class.std::basic_ostream"* nonnull align 8 dereferenceable(8), i32) local_unnamed_addr #0

; Function Attrs: argmemonly mustprogress nofree nosync nounwind willreturn
declare void @llvm.lifetime.end.p0i8(i64 immarg, i8* nocapture) #4

declare nonnull align 8 dereferenceable(16) %"class.std::basic_istream"* @_ZNSi7getlineEPclc(%"class.std::basic_istream"* nonnull align 8 dereferenceable(16), i8*, i64, i8 signext) local_unnamed_addr #0

; Function Attrs: noreturn
declare void @_ZSt16__throw_bad_castv() local_unnamed_addr #6

declare void @_ZNKSt5ctypeIcE13_M_widen_initEv(%"class.std::ctype"* nonnull align 8 dereferenceable(570)) local_unnamed_addr #0

declare nonnull align 8 dereferenceable(8) %"class.std::basic_ostream"* @_ZNSo3putEc(%"class.std::basic_ostream"* nonnull align 8 dereferenceable(8), i8 signext) local_unnamed_addr #0

declare nonnull align 8 dereferenceable(8) %"class.std::basic_ostream"* @_ZNSo5flushEv(%"class.std::basic_ostream"* nonnull align 8 dereferenceable(8)) local_unnamed_addr #0

; Function Attrs: sspstrong uwtable
define internal void @_GLOBAL__sub_I_145.cpp() #7 section ".text.startup" {
  tail call void @_ZNSt8ios_base4InitC1Ev(%"class.std::ios_base::Init"* nonnull align 1 dereferenceable(1) @_ZStL8__ioinit)
  %1 = tail call i32 @__cxa_atexit(void (i8*)* bitcast (void (%"class.std::ios_base::Init"*)* @_ZNSt8ios_base4InitD1Ev to void (i8*)*), i8* getelementptr inbounds (%"class.std::ios_base::Init", %"class.std::ios_base::Init"* @_ZStL8__ioinit, i64 0, i32 0), i8* nonnull @__dso_handle) #8
  ret void
}


!llvm.module.flags = !{!0, !1, !2, !3}
!llvm.ident = !{!4}

!0 = !{i32 1, !"wchar_size", i32 4}
!1 = !{i32 7, !"PIC Level", i32 2}
!2 = !{i32 7, !"PIE Level", i32 2}
!3 = !{i32 7, !"uwtable", i32 1}
!4 = !{!"clang version 13.0.0"}
!5 = !{!6, !6, i64 0}
!6 = !{!"vtable pointer", !7, i64 0}
!7 = !{!"Simple C++ TBAA"}
!8 = !{!9, !10, i64 240}
!9 = !{!"_ZTSSt9basic_iosIcSt11char_traitsIcEE", !10, i64 216, !11, i64 224, !12, i64 225, !10, i64 232, !10, i64 240, !10, i64 248, !10, i64 256}
!10 = !{!"any pointer", !11, i64 0}
!11 = !{!"omnipotent char", !7, i64 0}
!12 = !{!"bool", !11, i64 0}
!13 = !{!14, !11, i64 56}
!14 = !{!"_ZTSSt5ctypeIcE", !10, i64 16, !12, i64 24, !10, i64 32, !10, i64 40, !10, i64 48, !11, i64 56, !11, i64 57, !11, i64 313, !11, i64 569}
!15 = !{!11, !11, i64 0}
!16 = !{!17, !17, i64 0}
!17 = !{!"int", !11, i64 0}
!18 = distinct !{!18, !19}
!19 = !{!"llvm.loop.mustprogress"}
!20 = distinct !{!20, !19}
